; Function Attrs: nofree nosync nounwind memory(argmem: readwrite) uwtable
define void @Abc_QuickSortCostData(ptr noundef readonly captures(none) %0, i32 noundef %1, i32 noundef %2, ptr noundef captures(none) %3, ptr noundef writeonly captures(none) %4) local_unnamed_addr #1 {
  %6 = icmp sgt i32 %1, 0
  br i1 %6, label %.lr.ph.preheader, label %._crit_edge

.lr.ph.preheader:                                 ; preds = %5
  %wide.trip.count = zext nneg i32 %1 to i64
  br label %.lr.ph

.lr.ph:                                           ; preds = %.lr.ph.preheader, %.lr.ph
  %indvars.iv = phi i64 [ 0, %.lr.ph.preheader ], [ %indvars.iv.next, %.lr.ph ]
  %7 = shl nuw nsw i64 %indvars.iv, 32
  %8 = getelementptr inbounds nuw i32, ptr %0, i64 %indvars.iv
  %9 = load i32, ptr %8, align 4
  %10 = sext i32 %9 to i64
  %11 = or i64 %7, %10
  %12 = getelementptr inbounds nuw i64, ptr %3, i64 %indvars.iv
  store i64 %11, ptr %12, align 8
  %indvars.iv.next = add nuw nsw i64 %indvars.iv, 1
  %exitcond.not = icmp eq i64 %indvars.iv.next, %wide.trip.count
  br i1 %exitcond.not, label %._crit_edge, label %.lr.ph, !llvm.loop !44

._crit_edge:                                      ; preds = %.lr.ph, %5
  %.not.i = icmp eq i32 %2, 0
  %13 = add nsw i32 %1, -1
  br i1 %.not.i, label %.loopexit.loopexit.i, label %.loopexit.loopexit13.i

.loopexit.loopexit13.i:                           ; preds = %._crit_edge
  tail call void @Abc_QuickSort2Dec_rec(ptr noundef %3, i32 noundef 0, i32 noundef %13)
  br label %Abc_QuickSort3.exit

.loopexit.loopexit.i:                             ; preds = %._crit_edge
  tail call void @Abc_QuickSort2Inc_rec(ptr noundef %3, i32 noundef 0, i32 noundef %13)
  br label %Abc_QuickSort3.exit

Abc_QuickSort3.exit:                              ; preds = %.loopexit.loopexit13.i, %.loopexit.loopexit.i
  br i1 %6, label %.lr.ph20.preheader, label %._crit_edge21

.lr.ph20.preheader:                               ; preds = %Abc_QuickSort3.exit
  %wide.trip.count26 = zext nneg i32 %1 to i64
  br label %.lr.ph20

.lr.ph20:                                         ; preds = %.lr.ph20.preheader, %.lr.ph20
  %indvars.iv23 = phi i64 [ 0, %.lr.ph20.preheader ], [ %indvars.iv.next24, %.lr.ph20 ]
  %14 = getelementptr inbounds nuw i64, ptr %3, i64 %indvars.iv23
  %15 = load i64, ptr %14, align 8
  %16 = lshr i64 %15, 32
  %17 = trunc nuw i64 %16 to i32
  %18 = getelementptr inbounds nuw i32, ptr %4, i64 %indvars.iv23
  store i32 %17, ptr %18, align 4
  %indvars.iv.next24 = add nuw nsw i64 %indvars.iv23, 1
  %exitcond27.not = icmp eq i64 %indvars.iv.next24, %wide.trip.count26
  br i1 %exitcond27.not, label %._crit_edge21, label %.lr.ph20, !llvm.loop !45

._crit_edge21:                                    ; preds = %.lr.ph20, %Abc_QuickSort3.exit
  ret void
}